target datalayout = "e-m:e-p270:32:32-p271:32:32-p272:64:64-i64:64-i128:128-f80:128-n8:16:32:64-S128"
target triple = "x86_64-pc-linux-gnu"

%struct.mbedtls_ssl_context = type { ptr, i32, i32, i32, i32, i32, ptr, ptr, ptr, ptr, ptr, ptr, ptr, ptr, ptr, ptr, ptr, ptr, ptr, ptr, ptr, ptr, ptr, ptr, ptr, ptr, ptr, ptr, ptr, ptr, ptr, ptr, ptr, i32, i64, i64, i16, i64, i64, i64, i64, i32, i32, i8, i8, i32, i8, ptr, ptr, ptr, ptr, ptr, ptr, ptr, i32, i64, i64, [8 x i8], i16, ptr, ptr, ptr, i64, i32, i64, [12 x i8], [12 x i8], [32 x i8], i8, i8, ptr, ptr, %union.mbedtls_ssl_user_data_t }
%union.mbedtls_ssl_user_data_t = type { i64 }
%struct.mbedtls_ssl_config = type { i32, i32, i8, i8, i8, i8, i8, i8, i8, i8, i8, i8, i16, i8, i8, i8, ptr, i32, ptr, ptr, ptr, ptr, ptr, ptr, ptr, ptr, ptr, ptr, ptr, ptr, ptr, ptr, ptr, ptr, ptr, ptr, ptr, i64, ptr, ptr, ptr, ptr, ptr, ptr, ptr, ptr, %struct.mbedtls_mpi, %struct.mbedtls_mpi, ptr, i64, ptr, i64, ptr, i32, i32, i32, i32, [8 x i8], i32, i32, %union.mbedtls_ssl_user_data_t, ptr, ptr }
%struct.mbedtls_mpi = type { ptr, i16, i16 }
%struct.mbedtls_ssl_transform = type { i64, i64, i64, i64, i64, [16 x i8], [16 x i8], %struct.mbedtls_md_context_t, %struct.mbedtls_md_context_t, i32, i32, %struct.mbedtls_cipher_context_t, %struct.mbedtls_cipher_context_t, i8, i8, [32 x i8], [32 x i8], [64 x i8] }
%struct.mbedtls_md_context_t = type { ptr, ptr, ptr }
%struct.mbedtls_cipher_context_t = type { ptr, i32, i32, ptr, ptr, [16 x i8], i64, [16 x i8], i64, ptr, ptr }

; Function Attrs: nounwind uwtable
define internal i64 @ssl_transform_get_explicit_iv_len(ptr noundef %0) #0 {
  %2 = alloca ptr, align 8
  store ptr %0, ptr %2, align 8, !tbaa !50
  %3 = load ptr, ptr %2, align 8, !tbaa !50
  %4 = getelementptr inbounds nuw %struct.mbedtls_ssl_transform, ptr %3, i32 0, i32 1
  %5 = load i64, ptr %4, align 8, !tbaa !61
  %6 = load ptr, ptr %2, align 8, !tbaa !50
  %7 = getelementptr inbounds nuw %struct.mbedtls_ssl_transform, ptr %6, i32 0, i32 2
  %8 = load i64, ptr %7, align 8, !tbaa !59
  %9 = sub i64 %5, %8
  ret i64 %9
}

; Function Attrs: nounwind uwtable
define hidden void @mbedtls_ssl_update_out_pointers(ptr noundef %0, ptr noundef %1) #0 {
  %3 = alloca ptr, align 8
  %4 = alloca ptr, align 8
  store ptr %0, ptr %3, align 8, !tbaa !3
  store ptr %1, ptr %4, align 8, !tbaa !50
  %5 = load ptr, ptr %3, align 8, !tbaa !3
  %6 = getelementptr inbounds nuw %struct.mbedtls_ssl_context, ptr %5, i32 0, i32 0
  %7 = load ptr, ptr %6, align 8, !tbaa !23
  %8 = getelementptr inbounds nuw %struct.mbedtls_ssl_config, ptr %7, i32 0, i32 3
  %9 = load i8, ptr %8, align 1, !tbaa !24
  %10 = zext i8 %9 to i32
  %11 = icmp eq i32 %10, 1
  br i1 %11, label %12, label %49

12:                                               ; preds = %2
  %13 = load ptr, ptr %3, align 8, !tbaa !3
  %14 = getelementptr inbounds nuw %struct.mbedtls_ssl_context, ptr %13, i32 0, i32 49
  %15 = load ptr, ptr %14, align 8, !tbaa !103
  %16 = getelementptr inbounds i8, ptr %15, i64 3
  %17 = load ptr, ptr %3, align 8, !tbaa !3
  %18 = getelementptr inbounds nuw %struct.mbedtls_ssl_context, ptr %17, i32 0, i32 48
  store ptr %16, ptr %18, align 8, !tbaa !108
  %19 = load ptr, ptr %3, align 8, !tbaa !3
  %20 = getelementptr inbounds nuw %struct.mbedtls_ssl_context, ptr %19, i32 0, i32 48
  %21 = load ptr, ptr %20, align 8, !tbaa !108
  %22 = getelementptr inbounds i8, ptr %21, i64 8
  %23 = load ptr, ptr %3, align 8, !tbaa !3
  %24 = getelementptr inbounds nuw %struct.mbedtls_ssl_context, ptr %23, i32 0, i32 50
  store ptr %22, ptr %24, align 8, !tbaa !109
  %25 = load ptr, ptr %3, align 8, !tbaa !3
  %26 = getelementptr inbounds nuw %struct.mbedtls_ssl_context, ptr %25, i32 0, i32 50
  %27 = load ptr, ptr %26, align 8, !tbaa !109
  %28 = load ptr, ptr %3, align 8, !tbaa !3
  %29 = getelementptr inbounds nuw %struct.mbedtls_ssl_context, ptr %28, i32 0, i32 51
  store ptr %27, ptr %29, align 8, !tbaa !110
  %30 = load ptr, ptr %4, align 8, !tbaa !50
  %31 = icmp ne ptr %30, null
  br i1 %31, label %32, label %42

32:                                               ; preds = %12
  %33 = load ptr, ptr %4, align 8, !tbaa !50
  %34 = getelementptr inbounds nuw %struct.mbedtls_ssl_transform, ptr %33, i32 0, i32 14
  %35 = load i8, ptr %34, align 1, !tbaa !65
  %36 = zext i8 %35 to i32
  %37 = load ptr, ptr %3, align 8, !tbaa !3
  %38 = getelementptr inbounds nuw %struct.mbedtls_ssl_context, ptr %37, i32 0, i32 51
  %39 = load ptr, ptr %38, align 8, !tbaa !110
  %40 = sext i32 %36 to i64
  %41 = getelementptr inbounds i8, ptr %39, i64 %40
  store ptr %41, ptr %38, align 8, !tbaa !110
  br label %42

42:                                               ; preds = %32, %12
  %43 = load ptr, ptr %3, align 8, !tbaa !3
  %44 = getelementptr inbounds nuw %struct.mbedtls_ssl_context, ptr %43, i32 0, i32 51
  %45 = load ptr, ptr %44, align 8, !tbaa !110
  %46 = getelementptr inbounds i8, ptr %45, i64 2
  %47 = load ptr, ptr %3, align 8, !tbaa !3
  %48 = getelementptr inbounds nuw %struct.mbedtls_ssl_context, ptr %47, i32 0, i32 52
  store ptr %46, ptr %48, align 8, !tbaa !107
  br label %67

49:                                               ; preds = %2
  %50 = load ptr, ptr %3, align 8, !tbaa !3
  %51 = getelementptr inbounds nuw %struct.mbedtls_ssl_context, ptr %50, i32 0, i32 49
  %52 = load ptr, ptr %51, align 8, !tbaa !103
  %53 = getelementptr inbounds i8, ptr %52, i64 3
  %54 = load ptr, ptr %3, align 8, !tbaa !3
  %55 = getelementptr inbounds nuw %struct.mbedtls_ssl_context, ptr %54, i32 0, i32 51
  store ptr %53, ptr %55, align 8, !tbaa !110
  %56 = load ptr, ptr %3, align 8, !tbaa !3
  %57 = getelementptr inbounds nuw %struct.mbedtls_ssl_context, ptr %56, i32 0, i32 51
  %58 = load ptr, ptr %57, align 8, !tbaa !110
  %59 = load ptr, ptr %3, align 8, !tbaa !3
  %60 = getelementptr inbounds nuw %struct.mbedtls_ssl_context, ptr %59, i32 0, i32 50
  store ptr %58, ptr %60, align 8, !tbaa !109
  %61 = load ptr, ptr %3, align 8, !tbaa !3
  %62 = getelementptr inbounds nuw %struct.mbedtls_ssl_context, ptr %61, i32 0, i32 49
  %63 = load ptr, ptr %62, align 8, !tbaa !103
  %64 = getelementptr inbounds i8, ptr %63, i64 5
  %65 = load ptr, ptr %3, align 8, !tbaa !3
  %66 = getelementptr inbounds nuw %struct.mbedtls_ssl_context, ptr %65, i32 0, i32 52
  store ptr %64, ptr %66, align 8, !tbaa !107
  br label %67

67:                                               ; preds = %49, %42
  %68 = load ptr, ptr %3, align 8, !tbaa !3
  %69 = getelementptr inbounds nuw %struct.mbedtls_ssl_context, ptr %68, i32 0, i32 52
  %70 = load ptr, ptr %69, align 8, !tbaa !107
  %71 = load ptr, ptr %3, align 8, !tbaa !3
  %72 = getelementptr inbounds nuw %struct.mbedtls_ssl_context, ptr %71, i32 0, i32 53
  store ptr %70, ptr %72, align 8, !tbaa !111
  %73 = load ptr, ptr %4, align 8, !tbaa !50
  %74 = icmp ne ptr %73, null
  br i1 %74, label %75, label %82

75:                                               ; preds = %67
  %76 = load ptr, ptr %4, align 8, !tbaa !50
  %77 = call i64 @ssl_transform_get_explicit_iv_len(ptr noundef %76)
  %78 = load ptr, ptr %3, align 8, !tbaa !3
  %79 = getelementptr inbounds nuw %struct.mbedtls_ssl_context, ptr %78, i32 0, i32 53
  %80 = load ptr, ptr %79, align 8, !tbaa !111
  %81 = getelementptr inbounds nuw i8, ptr %80, i64 %77
  store ptr %81, ptr %79, align 8, !tbaa !111
  br label %82

82:                                               ; preds = %75, %67
  ret void
}