; Function Attrs: mustprogress nofree norecurse nosync nounwind willreturn memory(read, argmem: readwrite, inaccessiblemem: none) uwtable
define hidden void @mbedtls_ssl_update_out_pointers(ptr noundef captures(none) initializes((360, 392)) %0, ptr noundef readonly %1) local_unnamed_addr #7 {
  %3 = load ptr, ptr %0, align 8, !tbaa !18
  %4 = getelementptr inbounds nuw i8, ptr %3, i64 9
  %5 = load i8, ptr %4, align 1, !tbaa !19
  %6 = icmp eq i8 %5, 1
  %7 = getelementptr inbounds nuw i8, ptr %0, i64 352
  %8 = load ptr, ptr %7, align 8, !tbaa !96
  %9 = getelementptr inbounds nuw i8, ptr %8, i64 3
  br i1 %6, label %10, label %23

10:                                               ; preds = %2
  %11 = getelementptr inbounds nuw i8, ptr %0, i64 344
  store ptr %9, ptr %11, align 8, !tbaa !102
  %12 = getelementptr inbounds nuw i8, ptr %8, i64 11
  %13 = getelementptr inbounds nuw i8, ptr %0, i64 360
  store ptr %12, ptr %13, align 8, !tbaa !103
  %14 = getelementptr inbounds nuw i8, ptr %0, i64 368
  store ptr %12, ptr %14, align 8, !tbaa !104
  %.not = icmp eq ptr %1, null
  br i1 %.not, label %20, label %15

15:                                               ; preds = %10
  %16 = getelementptr inbounds nuw i8, ptr %1, i64 321
  %17 = load i8, ptr %16, align 1, !tbaa !63
  %18 = zext i8 %17 to i64
  %19 = getelementptr inbounds nuw i8, ptr %12, i64 %18
  store ptr %19, ptr %14, align 8, !tbaa !104
  br label %20

20:                                               ; preds = %15, %10
  %21 = phi ptr [ %19, %15 ], [ %12, %10 ]
  %22 = getelementptr inbounds nuw i8, ptr %21, i64 2
  br label %27

23:                                               ; preds = %2
  %24 = getelementptr inbounds nuw i8, ptr %0, i64 368
  store ptr %9, ptr %24, align 8, !tbaa !104
  %25 = getelementptr inbounds nuw i8, ptr %0, i64 360
  store ptr %9, ptr %25, align 8, !tbaa !103
  %26 = getelementptr inbounds nuw i8, ptr %8, i64 5
  br label %27

27:                                               ; preds = %23, %20
  %.sink = phi ptr [ %26, %23 ], [ %22, %20 ]
  %28 = getelementptr inbounds nuw i8, ptr %0, i64 376
  store ptr %.sink, ptr %28, align 8, !tbaa !97
  %29 = getelementptr inbounds nuw i8, ptr %0, i64 384
  store ptr %.sink, ptr %29, align 8, !tbaa !105
  %.not23 = icmp eq ptr %1, null
  br i1 %.not23, label %35, label %30

30:                                               ; preds = %27
  %31 = getelementptr i8, ptr %1, i64 8
  %.val = load i64, ptr %31, align 8, !tbaa !52
  %32 = getelementptr i8, ptr %1, i64 16
  %.val24 = load i64, ptr %32, align 8, !tbaa !53
  %33 = sub i64 %.val, %.val24
  %34 = getelementptr inbounds nuw i8, ptr %.sink, i64 %33
  store ptr %34, ptr %29, align 8, !tbaa !105
  br label %35

35:                                               ; preds = %30, %27
  ret void
}